; Function Attrs: mustprogress nofree nounwind willreturn memory(readwrite, argmem: none) uwtable
define dso_local noalias noundef ptr @onig_new_match_param() local_unnamed_addr #11 {
  %1 = tail call noalias dereferenceable_or_null(72) ptr @malloc(i64 noundef 72) #28
  %.not = icmp eq ptr %1, null
  br i1 %.not, label %16, label %2

2:                                                ; preds = %0
  %3 = load i32, ptr @MatchStackLimit, align 4, !tbaa !24
  store i32 %3, ptr %1, align 8, !tbaa !4
  %4 = load i64, ptr @RetryLimitInMatch, align 8, !tbaa !39
  %5 = getelementptr inbounds nuw i8, ptr %1, i64 8
  store i64 %4, ptr %5, align 8, !tbaa !11
  %6 = load i64, ptr @RetryLimitInSearch, align 8, !tbaa !39
  %7 = getelementptr inbounds nuw i8, ptr %1, i64 16
  store i64 %6, ptr %7, align 8, !tbaa !12
  %8 = getelementptr inbounds nuw i8, ptr %1, i64 24
  store ptr null, ptr %8, align 8, !tbaa !15
  %9 = load ptr, ptr @DefaultProgressCallout, align 8, !tbaa !20
  %10 = getelementptr inbounds nuw i8, ptr %1, i64 32
  store ptr %9, ptr %10, align 8, !tbaa !13
  %11 = load ptr, ptr @DefaultRetractionCallout, align 8, !tbaa !20
  %12 = getelementptr inbounds nuw i8, ptr %1, i64 40
  store ptr %11, ptr %12, align 8, !tbaa !14
  %13 = getelementptr inbounds nuw i8, ptr %1, i64 48
  store i32 0, ptr %13, align 8, !tbaa !40
  %14 = getelementptr inbounds nuw i8, ptr %1, i64 56
  store ptr null, ptr %14, align 8, !tbaa !41
  %15 = getelementptr inbounds nuw i8, ptr %1, i64 64
  store i32 0, ptr %15, align 8, !tbaa !42
  br label %16

16:                                               ; preds = %2, %0
  ret ptr %1
}